target datalayout = "e-m:e-p270:32:32-p271:32:32-p272:64:64-i64:64-i128:128-f80:128-n8:16:32:64-S128"
target triple = "x86_64-pc-linux-gnu"

%struct.Wln_Ret_t_ = type { ptr, %struct.Vec_Int_t_, %struct.Vec_Int_t_, %struct.Vec_Int_t_, %struct.Vec_Int_t_, %struct.Vec_Int_t_, %struct.Vec_Int_t_, %struct.Vec_Int_t_, %struct.Vec_Int_t_, %struct.Vec_Int_t_, %struct.Vec_Int_t_, i32, i32 }
%struct.Vec_Int_t_ = type { i32, i32, ptr }
%struct.Wln_Ntk_t_ = type { ptr, ptr, i32, %struct.Vec_Int_t_, %struct.Vec_Int_t_, %struct.Vec_Int_t_, %struct.Vec_Int_t_, ptr, %struct.Vec_Int_t_, ptr, %struct.Vec_Int_t_, %struct.Vec_Int_t_, ptr, %struct.Vec_Str_t_, i32, %struct.Vec_Int_t_, %struct.Vec_Int_t_, %struct.Vec_Int_t_, %struct.Vec_Int_t_, %struct.Vec_Int_t_, %struct.Vec_Int_t_, %struct.Vec_Int_t_, %struct.Vec_Int_t_, ptr, [99 x i32], [99 x i32] }
%struct.Vec_Str_t_ = type { i32, i32, ptr }
%struct.Wln_Vec_t_ = type { i32, i32, %union.anon }
%union.anon = type { [1 x ptr] }

; Function Attrs: inlinehint nounwind uwtable
define internal i32 @Wln_ObjType(ptr noundef %0, i32 noundef %1) #2 {
  %3 = alloca ptr, align 8
  %4 = alloca i32, align 4
  store ptr %0, ptr %3, align 8, !tbaa !18
  store i32 %1, ptr %4, align 4, !tbaa !8
  %5 = load ptr, ptr %3, align 8, !tbaa !18
  %6 = getelementptr inbounds nuw %struct.Wln_Ntk_t_, ptr %5, i32 0, i32 6
  %7 = load i32, ptr %4, align 4, !tbaa !8
  %8 = call i32 @Vec_IntEntry(ptr noundef %6, i32 noundef %7)
  ret i32 %8
}

; Function Attrs: inlinehint nounwind uwtable
define internal ptr @Vec_IntEntryP(ptr noundef %0, i32 noundef %1) #2 {
  %3 = alloca ptr, align 8
  %4 = alloca i32, align 4
  store ptr %0, ptr %3, align 8, !tbaa !29
  store i32 %1, ptr %4, align 4, !tbaa !8
  %5 = load ptr, ptr %3, align 8, !tbaa !29
  %6 = getelementptr inbounds nuw %struct.Vec_Int_t_, ptr %5, i32 0, i32 2
  %7 = load ptr, ptr %6, align 8, !tbaa !31
  %8 = load i32, ptr %4, align 4, !tbaa !8
  %9 = sext i32 %8 to i64
  %10 = getelementptr inbounds i32, ptr %7, i64 %9
  ret ptr %10
}

; Function Attrs: inlinehint nounwind uwtable
define internal i32 @Wln_ObjIsFf(ptr noundef %0, i32 noundef %1) #2 {
  %3 = alloca ptr, align 8
  %4 = alloca i32, align 4
  store ptr %0, ptr %3, align 8, !tbaa !18
  store i32 %1, ptr %4, align 4, !tbaa !8
  %5 = load ptr, ptr %3, align 8, !tbaa !18
  %6 = load i32, ptr %4, align 4, !tbaa !8
  %7 = call i32 @Wln_ObjType(ptr noundef %5, i32 noundef %6)
  %8 = icmp eq i32 %7, 89
  %9 = zext i1 %8 to i32
  ret i32 %9
}

; Function Attrs: inlinehint nounwind uwtable
define internal i32 @Wln_ObjIsCi(ptr noundef %0, i32 noundef %1) #2 {
  %3 = alloca ptr, align 8
  %4 = alloca i32, align 4
  store ptr %0, ptr %3, align 8, !tbaa !18
  store i32 %1, ptr %4, align 4, !tbaa !8
  %5 = load ptr, ptr %3, align 8, !tbaa !18
  %6 = load i32, ptr %4, align 4, !tbaa !8
  %7 = call i32 @Wln_ObjType(ptr noundef %5, i32 noundef %6)
  %8 = icmp eq i32 %7, 3
  %9 = zext i1 %8 to i32
  ret i32 %9
}

; Function Attrs: inlinehint nounwind uwtable
define internal ptr @Wln_RetFanins(ptr noundef %0, i32 noundef %1) #2 {
  %3 = alloca ptr, align 8
  %4 = alloca i32, align 4
  store ptr %0, ptr %3, align 8, !tbaa !3
  store i32 %1, ptr %4, align 4, !tbaa !8
  %5 = load ptr, ptr %3, align 8, !tbaa !3
  %6 = getelementptr inbounds nuw %struct.Wln_Ret_t_, ptr %5, i32 0, i32 1
  %7 = load ptr, ptr %3, align 8, !tbaa !3
  %8 = getelementptr inbounds nuw %struct.Wln_Ret_t_, ptr %7, i32 0, i32 1
  %9 = load i32, ptr %4, align 4, !tbaa !8
  %10 = call i32 @Vec_IntEntry(ptr noundef %8, i32 noundef %9)
  %11 = call ptr @Vec_IntEntryP(ptr noundef %6, i32 noundef %10)
  ret ptr %11
}

; Function Attrs: inlinehint nounwind uwtable
define internal i32 @Wln_ObjFaninNum(ptr noundef %0, i32 noundef %1) #2 {
  %3 = alloca ptr, align 8
  %4 = alloca i32, align 4
  store ptr %0, ptr %3, align 8, !tbaa !18
  store i32 %1, ptr %4, align 4, !tbaa !8
  %5 = load ptr, ptr %3, align 8, !tbaa !18
  %6 = getelementptr inbounds nuw %struct.Wln_Ntk_t_, ptr %5, i32 0, i32 7
  %7 = load ptr, ptr %6, align 8, !tbaa !19
  %8 = load i32, ptr %4, align 4, !tbaa !8
  %9 = sext i32 %8 to i64
  %10 = getelementptr inbounds %struct.Wln_Vec_t_, ptr %7, i64 %9
  %11 = getelementptr inbounds nuw %struct.Wln_Vec_t_, ptr %10, i32 0, i32 1
  %12 = load i32, ptr %11, align 4, !tbaa !27
  ret i32 %12
}

; Function Attrs: inlinehint nounwind uwtable
define internal i32 @Wln_RetCheckForwardOne(ptr noundef %0, i32 noundef %1) #2 {
  %3 = alloca i32, align 4
  %4 = alloca ptr, align 8
  %5 = alloca i32, align 4
  %6 = alloca i32, align 4
  %7 = alloca i32, align 4
  %8 = alloca ptr, align 8
  %9 = alloca i32, align 4
  %10 = alloca i32, align 4
  %11 = alloca i32, align 4
  store ptr %0, ptr %4, align 8, !tbaa !3
  store i32 %1, ptr %5, align 4, !tbaa !8
  call void @llvm.lifetime.start.p0(i64 4, ptr %6) #11
  call void @llvm.lifetime.start.p0(i64 4, ptr %7) #11
  call void @llvm.lifetime.start.p0(i64 8, ptr %8) #11
  call void @llvm.lifetime.start.p0(i64 4, ptr %9) #11
  call void @llvm.lifetime.start.p0(i64 4, ptr %10) #11
  store i32 -1, ptr %10, align 4, !tbaa !8
  store i32 0, ptr %6, align 4, !tbaa !8
  br label %12

12:                                               ; preds = %102, %2
  %13 = load i32, ptr %6, align 4, !tbaa !8
  %14 = load ptr, ptr %4, align 8, !tbaa !3
  %15 = getelementptr inbounds nuw %struct.Wln_Ret_t_, ptr %14, i32 0, i32 0
  %16 = load ptr, ptr %15, align 8, !tbaa !10
  %17 = load i32, ptr %5, align 4, !tbaa !8
  %18 = call i32 @Wln_ObjFaninNum(ptr noundef %16, i32 noundef %17)
  %19 = icmp slt i32 %13, %18
  br i1 %19, label %20, label %39

20:                                               ; preds = %12
  %21 = load ptr, ptr %4, align 8, !tbaa !3
  %22 = load i32, ptr %5, align 4, !tbaa !8
  %23 = call ptr @Wln_RetFanins(ptr noundef %21, i32 noundef %22)
  %24 = load i32, ptr %6, align 4, !tbaa !8
  %25 = mul nsw i32 2, %24
  %26 = sext i32 %25 to i64
  %27 = getelementptr inbounds i32, ptr %23, i64 %26
  %28 = load i32, ptr %27, align 4, !tbaa !8
  store i32 %28, ptr %7, align 4, !tbaa !8
  br i1 true, label %29, label %39

29:                                               ; preds = %20
  %30 = load ptr, ptr %4, align 8, !tbaa !3
  %31 = load i32, ptr %5, align 4, !tbaa !8
  %32 = call ptr @Wln_RetFanins(ptr noundef %30, i32 noundef %31)
  %33 = load i32, ptr %6, align 4, !tbaa !8
  %34 = mul nsw i32 2, %33
  %35 = sext i32 %34 to i64
  %36 = getelementptr inbounds i32, ptr %32, i64 %35
  %37 = getelementptr inbounds i32, ptr %36, i64 1
  store ptr %37, ptr %8, align 8, !tbaa !15
  %38 = icmp ne ptr %37, null
  br label %39

39:                                               ; preds = %29, %20, %12
  %40 = phi i1 [ false, %20 ], [ false, %12 ], [ %38, %29 ]
  br i1 %40, label %41, label %105

41:                                               ; preds = %39
  %42 = load i32, ptr %7, align 4, !tbaa !8
  %43 = icmp ne i32 %42, 0
  br i1 %43, label %44, label %58

44:                                               ; preds = %41
  %45 = load ptr, ptr %4, align 8, !tbaa !3
  %46 = getelementptr inbounds nuw %struct.Wln_Ret_t_, ptr %45, i32 0, i32 0
  %47 = load ptr, ptr %46, align 8, !tbaa !10
  %48 = load i32, ptr %7, align 4, !tbaa !8
  %49 = call i32 @Wln_ObjFaninNum(ptr noundef %47, i32 noundef %48)
  %50 = icmp ne i32 %49, 0
  br i1 %50, label %59, label %51

51:                                               ; preds = %44
  %52 = load ptr, ptr %4, align 8, !tbaa !3
  %53 = getelementptr inbounds nuw %struct.Wln_Ret_t_, ptr %52, i32 0, i32 0
  %54 = load ptr, ptr %53, align 8, !tbaa !10
  %55 = load i32, ptr %7, align 4, !tbaa !8
  %56 = call i32 @Wln_ObjIsCi(ptr noundef %54, i32 noundef %55)
  %57 = icmp ne i32 %56, 0
  br i1 %57, label %59, label %58

58:                                               ; preds = %51, %41
  br label %101

59:                                               ; preds = %51, %44
  %60 = load ptr, ptr %4, align 8, !tbaa !3
  %61 = getelementptr inbounds nuw %struct.Wln_Ret_t_, ptr %60, i32 0, i32 0
  %62 = load ptr, ptr %61, align 8, !tbaa !10
  %63 = load i32, ptr %5, align 4, !tbaa !8
  %64 = call i32 @Wln_ObjIsFf(ptr noundef %62, i32 noundef %63)
  %65 = icmp ne i32 %64, 0
  br i1 %65, label %66, label %70

66:                                               ; preds = %59
  %67 = load i32, ptr %6, align 4, !tbaa !8
  %68 = icmp sgt i32 %67, 0
  br i1 %68, label %69, label %70

69:                                               ; preds = %66
  br label %102

70:                                               ; preds = %66, %59
  %71 = load ptr, ptr %8, align 8, !tbaa !15
  %72 = getelementptr inbounds i32, ptr %71, i64 0
  %73 = load i32, ptr %72, align 4, !tbaa !8
  %74 = icmp ne i32 %73, 0
  br i1 %74, label %76, label %75

75:                                               ; preds = %70
  store i32 0, ptr %3, align 4
  store i32 1, ptr %11, align 4
  br label %106

76:                                               ; preds = %70
  %77 = load ptr, ptr %4, align 8, !tbaa !3
  %78 = getelementptr inbounds nuw %struct.Wln_Ret_t_, ptr %77, i32 0, i32 3
  %79 = load ptr, ptr %8, align 8, !tbaa !15
  %80 = getelementptr inbounds i32, ptr %79, i64 0
  %81 = load i32, ptr %80, align 4, !tbaa !8
  %82 = add nsw i32 %81, 1
  %83 = call i32 @Vec_IntEntry(ptr noundef %78, i32 noundef %82)
  store i32 %83, ptr %9, align 4, !tbaa !8
  %84 = load i32, ptr %10, align 4, !tbaa !8
  %85 = icmp eq i32 %84, -1
  br i1 %85, label %86, label %91

86:                                               ; preds = %76
  %87 = load ptr, ptr %4, align 8, !tbaa !3
  %88 = getelementptr inbounds nuw %struct.Wln_Ret_t_, ptr %87, i32 0, i32 4
  %89 = load i32, ptr %9, align 4, !tbaa !8
  %90 = call i32 @Vec_IntEntry(ptr noundef %88, i32 noundef %89)
  store i32 %90, ptr %10, align 4, !tbaa !8
  br label %100

91:                                               ; preds = %76
  %92 = load i32, ptr %10, align 4, !tbaa !8
  %93 = load ptr, ptr %4, align 8, !tbaa !3
  %94 = getelementptr inbounds nuw %struct.Wln_Ret_t_, ptr %93, i32 0, i32 4
  %95 = load i32, ptr %9, align 4, !tbaa !8
  %96 = call i32 @Vec_IntEntry(ptr noundef %94, i32 noundef %95)
  %97 = icmp ne i32 %92, %96
  br i1 %97, label %98, label %99

98:                                               ; preds = %91
  store i32 0, ptr %3, align 4
  store i32 1, ptr %11, align 4
  br label %106

99:                                               ; preds = %91
  br label %100

100:                                              ; preds = %99, %86
  br label %101

101:                                              ; preds = %100, %58
  br label %102

102:                                              ; preds = %101, %69
  %103 = load i32, ptr %6, align 4, !tbaa !8
  %104 = add nsw i32 %103, 1
  store i32 %104, ptr %6, align 4, !tbaa !8
  br label %12, !llvm.loop !95

105:                                              ; preds = %39
  store i32 1, ptr %3, align 4
  store i32 1, ptr %11, align 4
  br label %106

106:                                              ; preds = %105, %98, %75
  call void @llvm.lifetime.end.p0(i64 4, ptr %10) #11
  call void @llvm.lifetime.end.p0(i64 4, ptr %9) #11
  call void @llvm.lifetime.end.p0(i64 8, ptr %8) #11
  call void @llvm.lifetime.end.p0(i64 4, ptr %7) #11
  call void @llvm.lifetime.end.p0(i64 4, ptr %6) #11
  %107 = load i32, ptr %3, align 4
  ret i32 %107
}

; Function Attrs: inlinehint nounwind uwtable
define internal i32 @Vec_IntEntry(ptr noundef %0, i32 noundef %1) #2 {
  %3 = alloca ptr, align 8
  %4 = alloca i32, align 4
  store ptr %0, ptr %3, align 8, !tbaa !29
  store i32 %1, ptr %4, align 4, !tbaa !8
  %5 = load ptr, ptr %3, align 8, !tbaa !29
  %6 = getelementptr inbounds nuw %struct.Vec_Int_t_, ptr %5, i32 0, i32 2
  %7 = load ptr, ptr %6, align 8, !tbaa !31
  %8 = load i32, ptr %4, align 4, !tbaa !8
  %9 = sext i32 %8 to i64
  %10 = getelementptr inbounds i32, ptr %7, i64 %9
  %11 = load i32, ptr %10, align 4, !tbaa !8
  ret i32 %11
}

; Function Attrs: inlinehint nounwind uwtable
define internal i32 @Vec_IntSize(ptr noundef %0) #2 {
  %2 = alloca ptr, align 8
  store ptr %0, ptr %2, align 8, !tbaa !29
  %3 = load ptr, ptr %2, align 8, !tbaa !29
  %4 = getelementptr inbounds nuw %struct.Vec_Int_t_, ptr %3, i32 0, i32 1
  %5 = load i32, ptr %4, align 4, !tbaa !44
  ret i32 %5
}

; Function Attrs: nounwind uwtable
define i32 @Wln_RetCheckForward(ptr noundef %0, ptr noundef %1) #0 {
  %3 = alloca i32, align 4
  %4 = alloca ptr, align 8
  %5 = alloca ptr, align 8
  %6 = alloca i32, align 4
  %7 = alloca i32, align 4
  %8 = alloca i32, align 4
  store ptr %0, ptr %4, align 8, !tbaa !3
  store ptr %1, ptr %5, align 8, !tbaa !29
  call void @llvm.lifetime.start.p0(i64 4, ptr %6) #11
  call void @llvm.lifetime.start.p0(i64 4, ptr %7) #11
  store i32 0, ptr %6, align 4, !tbaa !8
  br label %9

9:                                                ; preds = %27, %2
  %10 = load i32, ptr %6, align 4, !tbaa !8
  %11 = load ptr, ptr %5, align 8, !tbaa !29
  %12 = call i32 @Vec_IntSize(ptr noundef %11)
  %13 = icmp slt i32 %10, %12
  br i1 %13, label %14, label %18

14:                                               ; preds = %9
  %15 = load ptr, ptr %5, align 8, !tbaa !29
  %16 = load i32, ptr %6, align 4, !tbaa !8
  %17 = call i32 @Vec_IntEntry(ptr noundef %15, i32 noundef %16)
  store i32 %17, ptr %7, align 4, !tbaa !8
  br label %18

18:                                               ; preds = %14, %9
  %19 = phi i1 [ false, %9 ], [ true, %14 ]
  br i1 %19, label %20, label %30

20:                                               ; preds = %18
  %21 = load ptr, ptr %4, align 8, !tbaa !3
  %22 = load i32, ptr %7, align 4, !tbaa !8
  %23 = call i32 @Wln_RetCheckForwardOne(ptr noundef %21, i32 noundef %22)
  %24 = icmp ne i32 %23, 0
  br i1 %24, label %26, label %25

25:                                               ; preds = %20
  store i32 0, ptr %3, align 4
  store i32 1, ptr %8, align 4
  br label %31

26:                                               ; preds = %20
  br label %27

27:                                               ; preds = %26
  %28 = load i32, ptr %6, align 4, !tbaa !8
  %29 = add nsw i32 %28, 1
  store i32 %29, ptr %6, align 4, !tbaa !8
  br label %9, !llvm.loop !94

30:                                               ; preds = %18
  store i32 1, ptr %3, align 4
  store i32 1, ptr %8, align 4
  br label %31

31:                                               ; preds = %30, %25
  call void @llvm.lifetime.end.p0(i64 4, ptr %7) #11
  call void @llvm.lifetime.end.p0(i64 4, ptr %6) #11
  %32 = load i32, ptr %3, align 4
  ret i32 %32
}