; Function Attrs: nofree norecurse nosync nounwind memory(read, inaccessiblemem: none) uwtable
define range(i32 0, 2) i32 @Wln_RetCheckForward(ptr noundef readonly captures(none) %0, ptr noundef readonly captures(none) %1) local_unnamed_addr #13 {
  %3 = getelementptr i8, ptr %1, i64 4
  %.val8 = load i32, ptr %3, align 4, !tbaa !26
  %4 = icmp sgt i32 %.val8, 0
  br i1 %4, label %.lr.ph, label %.critedge

.lr.ph:                                           ; preds = %2
  %5 = getelementptr i8, ptr %1, i64 8
  %.val = load ptr, ptr %5, align 8, !tbaa !12
  %6 = getelementptr i8, ptr %0, i64 64
  %7 = load ptr, ptr %0, align 8, !tbaa !3
  %8 = getelementptr i8, ptr %7, i64 88
  %.val39.i = load ptr, ptr %8, align 8, !tbaa !14
  %9 = getelementptr i8, ptr %0, i64 16
  %10 = getelementptr i8, ptr %7, i64 80
  %11 = getelementptr i8, ptr %0, i64 48
  %wide.trip.count = zext nneg i32 %.val8 to i64
  br label %12

12:                                               ; preds = %.lr.ph, %Wln_RetCheckForwardOne.exit
  %indvars.iv = phi i64 [ 0, %.lr.ph ], [ %indvars.iv.next, %Wln_RetCheckForwardOne.exit ]
  %13 = getelementptr inbounds nuw i32, ptr %.val, i64 %indvars.iv
  %14 = load i32, ptr %13, align 4, !tbaa !13
  %15 = sext i32 %14 to i64
  %16 = getelementptr inbounds %struct.Wln_Vec_t_, ptr %.val39.i, i64 %15, i32 1
  %17 = load i32, ptr %16, align 4, !tbaa !22
  %18 = icmp sgt i32 %17, 0
  br i1 %18, label %.lr.ph.i, label %Wln_RetCheckForwardOne.exit

.lr.ph.i:                                         ; preds = %12
  %.val41.i = load ptr, ptr %9, align 8, !tbaa !12
  %19 = getelementptr inbounds i32, ptr %.val41.i, i64 %15
  %20 = load i32, ptr %19, align 4, !tbaa !13
  %21 = sext i32 %20 to i64
  %22 = getelementptr inbounds i32, ptr %.val41.i, i64 %21
  %wide.trip.count.i = zext nneg i32 %17 to i64
  br label %23

23:                                               ; preds = %51, %.lr.ph.i
  %indvars.iv.i = phi i64 [ 0, %.lr.ph.i ], [ %indvars.iv.next.i, %51 ]
  %.046.i = phi i32 [ -1, %.lr.ph.i ], [ %.1.i, %51 ]
  %.idx.i = shl nuw nsw i64 %indvars.iv.i, 3
  %24 = getelementptr inbounds nuw i8, ptr %22, i64 %.idx.i
  %25 = load i32, ptr %24, align 4, !tbaa !13
  %26 = getelementptr inbounds nuw i8, ptr %24, i64 4
  %.not.i = icmp eq i32 %25, 0
  br i1 %.not.i, label %51, label %27

27:                                               ; preds = %23
  %28 = sext i32 %25 to i64
  %29 = getelementptr inbounds %struct.Wln_Vec_t_, ptr %.val39.i, i64 %28, i32 1
  %30 = load i32, ptr %29, align 4, !tbaa !22
  %.not32.i = icmp eq i32 %30, 0
  %.val43.pre.i = load ptr, ptr %10, align 8, !tbaa !12
  br i1 %.not32.i, label %31, label %34

31:                                               ; preds = %27
  %32 = getelementptr inbounds i32, ptr %.val43.pre.i, i64 %28
  %33 = load i32, ptr %32, align 4, !tbaa !13
  %.not44.i = icmp eq i32 %33, 3
  br i1 %.not44.i, label %34, label %51

34:                                               ; preds = %31, %27
  %35 = getelementptr inbounds i32, ptr %.val43.pre.i, i64 %15
  %36 = load i32, ptr %35, align 4, !tbaa !13
  %37 = icmp eq i32 %36, 89
  %38 = icmp ne i64 %indvars.iv.i, 0
  %or.cond.i = and i1 %38, %37
  br i1 %or.cond.i, label %51, label %39

39:                                               ; preds = %34
  %40 = load i32, ptr %26, align 4, !tbaa !13
  %.not34.i = icmp eq i32 %40, 0
  br i1 %.not34.i, label %.critedge, label %41

41:                                               ; preds = %39
  %.val37.i = load ptr, ptr %11, align 8, !tbaa !12
  %42 = sext i32 %40 to i64
  %43 = getelementptr i32, ptr %.val37.i, i64 %42
  %44 = getelementptr i8, ptr %43, i64 4
  %45 = load i32, ptr %44, align 4, !tbaa !13
  %46 = icmp eq i32 %.046.i, -1
  %.val36.i = load ptr, ptr %6, align 8, !tbaa !12
  %47 = sext i32 %45 to i64
  %48 = getelementptr inbounds i32, ptr %.val36.i, i64 %47
  %49 = load i32, ptr %48, align 4, !tbaa !13
  br i1 %46, label %51, label %50

50:                                               ; preds = %41
  %.not35.i = icmp eq i32 %.046.i, %49
  br i1 %.not35.i, label %51, label %.critedge

51:                                               ; preds = %50, %41, %34, %31, %23
  %.1.i = phi i32 [ %.046.i, %34 ], [ %.046.i, %50 ], [ %.046.i, %31 ], [ %.046.i, %23 ], [ %49, %41 ]
  %indvars.iv.next.i = add nuw nsw i64 %indvars.iv.i, 1
  %exitcond.not.i = icmp eq i64 %indvars.iv.next.i, %wide.trip.count.i
  br i1 %exitcond.not.i, label %Wln_RetCheckForwardOne.exit, label %23, !llvm.loop !90

Wln_RetCheckForwardOne.exit:                      ; preds = %51, %12
  %indvars.iv.next = add nuw nsw i64 %indvars.iv, 1
  %exitcond.not = icmp eq i64 %indvars.iv.next, %wide.trip.count
  br i1 %exitcond.not, label %.critedge, label %12, !llvm.loop !91

.critedge:                                        ; preds = %Wln_RetCheckForwardOne.exit, %39, %50, %2
  %.0 = phi i32 [ 1, %2 ], [ 0, %50 ], [ 0, %39 ], [ 1, %Wln_RetCheckForwardOne.exit ]
  ret i32 %.0
}